ccopy_reg
_reconstructor
p0
(c__main__
RisingHumpSim
p1
c__builtin__
object
p2
Ntp3
Rp4
(dp5
S'folder'
p6
S'ADR-results/RisingHumpSim/'
p7
sS'init_time'
p8
F2094.1591723300003
sS'method'
p9
S'SUPG'
p10
sS'saveEvery'
p11
I10
sb.