ccopy_reg
_reconstructor
p0
(c__main__
RisingHumpSim
p1
c__builtin__
object
p2
Ntp3
Rp4
(dp5
S'folder'
p6
S'ADR-results/RisingHumpSim/chiStudy/'
p7
sS'init_time'
p8
F1550684472.661826
sS'method'
p9
S'EFR'
p10
sS'saveEvery'
p11
I25
sb.